target datalayout = "e-m:e-p270:32:32-p271:32:32-p272:64:64-i64:64-i128:128-f80:128-n8:16:32:64-S128"
target triple = "x86_64-pc-linux-gnu"

%class.GrowableArray = type { %class.GrowableArrayWithAllocator, %class.GrowableArrayMetadata }
%class.GrowableArrayWithAllocator = type { %class.GrowableArrayView }
%class.GrowableArrayView = type { %class.GrowableArrayBase, ptr }
%class.GrowableArrayBase = type { i32, i32 }
%class.GrowableArrayMetadata = type { i64 }
%class.VectorSet = type { i32, ptr, i32, ptr }
%class.Unique_Node_List = type <{ %class.Node_List.base, [4 x i8], %class.VectorSet, i32, [4 x i8] }>
%class.Node_List.base = type <{ %class.Node_Array, i32 }>
%class.Node_Array = type { ptr, i32, ptr }
%class.Node = type <{ ptr, ptr, ptr, i32, i32, i32, i32, i32, i32, i32, [4 x i8] }>
%class.PointsToNode = type { %class.GrowableArray, %class.GrowableArray, i8, i8, i8, i8, ptr, i32, i32 }
%class.FieldNode = type <{ %class.PointsToNode, %class.GrowableArray, i32, i8, i8, [2 x i8] }>
%class.PointsToIterator = type { ptr, i32, i32 }
%class.BaseIterator = type { %class.PointsToIterator }

; Function Attrs: mustprogress nounwind uwtable
define linkonce_odr hidden noundef nonnull align 8 dereferenceable(8) ptr @_ZNK17GrowableArrayViewIP12PointsToNodeE2atEi(ptr noundef nonnull align 8 dereferenceable(16) %0, i32 noundef %1) #1 comdat align 2 {
  %3 = alloca ptr, align 8
  %4 = alloca i32, align 4
  store ptr %0, ptr %3, align 8
  store i32 %1, ptr %4, align 4
  %5 = load ptr, ptr %3, align 8
  %6 = getelementptr inbounds %class.GrowableArrayView, ptr %5, i32 0, i32 1
  %7 = load ptr, ptr %6, align 8
  %8 = load i32, ptr %4, align 4
  %9 = sext i32 %8 to i64
  %10 = getelementptr inbounds ptr, ptr %7, i64 %9
  ret ptr %10
}

; Function Attrs: mustprogress nounwind uwtable
define linkonce_odr hidden noundef i32 @_ZNK17GrowableArrayBase6lengthEv(ptr noundef nonnull align 4 dereferenceable(8) %0) #1 comdat align 2 {
  %2 = alloca ptr, align 8
  store ptr %0, ptr %2, align 8
  %3 = load ptr, ptr %2, align 8
  %4 = getelementptr inbounds %class.GrowableArrayBase, ptr %3, i32 0, i32 0
  %5 = load i32, ptr %4, align 4
  ret i32 %5
}

; Function Attrs: mustprogress nounwind uwtable
define linkonce_odr hidden noundef zeroext i1 @_ZNK9VectorSet4testEj(ptr noundef nonnull align 8 dereferenceable(32) %0, i32 noundef %1) #1 comdat align 2 {
  %3 = alloca i1, align 1
  %4 = alloca ptr, align 8
  %5 = alloca i32, align 4
  %6 = alloca i32, align 4
  %7 = alloca i32, align 4
  store ptr %0, ptr %4, align 8
  store i32 %1, ptr %5, align 4
  %8 = load ptr, ptr %4, align 8
  %9 = load i32, ptr %5, align 4
  %10 = lshr i32 %9, 5
  store i32 %10, ptr %6, align 4
  %11 = load i32, ptr %6, align 4
  %12 = getelementptr inbounds %class.VectorSet, ptr %8, i32 0, i32 0
  %13 = load i32, ptr %12, align 8
  %14 = icmp uge i32 %11, %13
  br i1 %14, label %15, label %16

15:                                               ; preds = %2
  store i1 false, ptr %3, align 1
  br label %29

16:                                               ; preds = %2
  %17 = load i32, ptr %5, align 4
  %18 = and i32 %17, 31
  %19 = shl i32 1, %18
  store i32 %19, ptr %7, align 4
  %20 = getelementptr inbounds %class.VectorSet, ptr %8, i32 0, i32 1
  %21 = load ptr, ptr %20, align 8
  %22 = load i32, ptr %6, align 4
  %23 = zext i32 %22 to i64
  %24 = getelementptr inbounds i32, ptr %21, i64 %23
  %25 = load i32, ptr %24, align 4
  %26 = load i32, ptr %7, align 4
  %27 = and i32 %25, %26
  %28 = icmp ne i32 %27, 0
  store i1 %28, ptr %3, align 1
  br label %29

29:                                               ; preds = %16, %15
  %30 = load i1, ptr %3, align 1
  ret i1 %30
}

; Function Attrs: mustprogress nounwind uwtable
define linkonce_odr hidden noundef ptr @_ZNK9FieldNode4baseEi(ptr noundef nonnull align 8 dereferenceable(102) %0, i32 noundef %1) #1 comdat align 2 {
  %3 = alloca ptr, align 8
  %4 = alloca i32, align 4
  store ptr %0, ptr %3, align 8
  store i32 %1, ptr %4, align 4
  %5 = load ptr, ptr %3, align 8
  %6 = getelementptr inbounds %class.FieldNode, ptr %5, i32 0, i32 1
  %7 = load i32, ptr %4, align 4
  %8 = call noundef nonnull align 8 dereferenceable(8) ptr @_ZNK17GrowableArrayViewIP12PointsToNodeE2atEi(ptr noundef nonnull align 8 dereferenceable(16) %6, i32 noundef %7)
  %9 = load ptr, ptr %8, align 8
  ret ptr %9
}

; Function Attrs: mustprogress nounwind uwtable
define linkonce_odr hidden noundef ptr @_ZN12PointsToNode8as_FieldEv(ptr noundef nonnull align 8 dereferenceable(72) %0) #1 comdat align 2 {
  %2 = alloca ptr, align 8
  store ptr %0, ptr %2, align 8
  %3 = load ptr, ptr %2, align 8
  ret ptr %3
}

; Function Attrs: mustprogress nounwind uwtable
define linkonce_odr hidden void @_ZN16PointsToIteratorC2EPK12PointsToNodei(ptr noundef nonnull align 8 dereferenceable(16) %0, ptr noundef %1, i32 noundef %2) unnamed_addr #1 comdat align 2 {
  %4 = alloca ptr, align 8
  %5 = alloca ptr, align 8
  %6 = alloca i32, align 4
  store ptr %0, ptr %4, align 8
  store ptr %1, ptr %5, align 8
  store i32 %2, ptr %6, align 4
  %7 = load ptr, ptr %4, align 8
  %8 = getelementptr inbounds %class.PointsToIterator, ptr %7, i32 0, i32 0
  %9 = load ptr, ptr %5, align 8
  store ptr %9, ptr %8, align 8
  %10 = getelementptr inbounds %class.PointsToIterator, ptr %7, i32 0, i32 1
  %11 = load i32, ptr %6, align 4
  store i32 %11, ptr %10, align 8
  %12 = getelementptr inbounds %class.PointsToIterator, ptr %7, i32 0, i32 2
  store i32 0, ptr %12, align 4
  ret void
}

; Function Attrs: mustprogress nounwind uwtable
define linkonce_odr hidden noundef i32 @_ZNK9FieldNode10base_countEv(ptr noundef nonnull align 8 dereferenceable(102) %0) #1 comdat align 2 {
  %2 = alloca ptr, align 8
  store ptr %0, ptr %2, align 8
  %3 = load ptr, ptr %2, align 8
  %4 = getelementptr inbounds %class.FieldNode, ptr %3, i32 0, i32 1
  %5 = call noundef i32 @_ZNK17GrowableArrayBase6lengthEv(ptr noundef nonnull align 4 dereferenceable(8) %4)
  ret i32 %5
}

; Function Attrs: mustprogress nounwind uwtable
define linkonce_odr hidden void @_ZN16PointsToIterator4nextEv(ptr noundef nonnull align 8 dereferenceable(16) %0) #1 comdat align 2 {
  %2 = alloca ptr, align 8
  store ptr %0, ptr %2, align 8
  %3 = load ptr, ptr %2, align 8
  %4 = getelementptr inbounds %class.PointsToIterator, ptr %3, i32 0, i32 2
  %5 = load i32, ptr %4, align 4
  %6 = add nsw i32 %5, 1
  store i32 %6, ptr %4, align 4
  ret void
}

; Function Attrs: mustprogress nounwind uwtable
define linkonce_odr hidden noundef zeroext i1 @_ZN16Unique_Node_List6memberEP4Node(ptr noundef nonnull align 8 dereferenceable(68) %0, ptr noundef %1) #1 comdat align 2 {
  %3 = alloca ptr, align 8
  %4 = alloca ptr, align 8
  store ptr %0, ptr %3, align 8
  store ptr %1, ptr %4, align 8
  %5 = load ptr, ptr %3, align 8
  %6 = getelementptr inbounds %class.Unique_Node_List, ptr %5, i32 0, i32 2
  %7 = load ptr, ptr %4, align 8
  %8 = getelementptr inbounds %class.Node, ptr %7, i32 0, i32 7
  %9 = load i32, ptr %8, align 8
  %10 = call noundef zeroext i1 @_ZNK9VectorSet4testEj(ptr noundef nonnull align 8 dereferenceable(32) %6, i32 noundef %9)
  %11 = zext i1 %10 to i32
  %12 = icmp ne i32 %11, 0
  ret i1 %12
}

; Function Attrs: mustprogress nounwind uwtable
define linkonce_odr hidden noundef zeroext i1 @_ZNK4Node6is_PhiEv(ptr noundef nonnull align 8 dereferenceable(52) %0) #1 comdat align 2 {
  %2 = alloca ptr, align 8
  store ptr %0, ptr %2, align 8
  %3 = load ptr, ptr %2, align 8
  %4 = getelementptr inbounds %class.Node, ptr %3, i32 0, i32 8
  %5 = load i32, ptr %4, align 4
  %6 = and i32 %5, 15
  %7 = icmp eq i32 %6, 12
  ret i1 %7
}

; Function Attrs: mustprogress nounwind uwtable
define linkonce_odr hidden noundef ptr @_ZNK12PointsToNode10ideal_nodeEv(ptr noundef nonnull align 8 dereferenceable(72) %0) #1 comdat align 2 {
  %2 = alloca ptr, align 8
  store ptr %0, ptr %2, align 8
  %3 = load ptr, ptr %2, align 8
  %4 = getelementptr inbounds %class.PointsToNode, ptr %3, i32 0, i32 6
  %5 = load ptr, ptr %4, align 8
  ret ptr %5
}

; Function Attrs: mustprogress nounwind uwtable
define linkonce_odr hidden noundef ptr @_ZNK12BaseIterator3getEv(ptr noundef nonnull align 8 dereferenceable(16) %0) #1 comdat align 2 {
  %2 = alloca ptr, align 8
  store ptr %0, ptr %2, align 8
  %3 = load ptr, ptr %2, align 8
  %4 = getelementptr inbounds %class.PointsToIterator, ptr %3, i32 0, i32 0
  %5 = load ptr, ptr %4, align 8
  %6 = call noundef ptr @_ZN12PointsToNode8as_FieldEv(ptr noundef nonnull align 8 dereferenceable(72) %5)
  %7 = getelementptr inbounds %class.PointsToIterator, ptr %3, i32 0, i32 2
  %8 = load i32, ptr %7, align 4
  %9 = call noundef ptr @_ZNK9FieldNode4baseEi(ptr noundef nonnull align 8 dereferenceable(102) %6, i32 noundef %8)
  ret ptr %9
}

; Function Attrs: mustprogress nounwind uwtable
define linkonce_odr hidden noundef zeroext i1 @_ZNK16PointsToIterator8has_nextEv(ptr noundef nonnull align 8 dereferenceable(16) %0) #1 comdat align 2 {
  %2 = alloca ptr, align 8
  store ptr %0, ptr %2, align 8
  %3 = load ptr, ptr %2, align 8
  %4 = getelementptr inbounds %class.PointsToIterator, ptr %3, i32 0, i32 2
  %5 = load i32, ptr %4, align 4
  %6 = getelementptr inbounds %class.PointsToIterator, ptr %3, i32 0, i32 1
  %7 = load i32, ptr %6, align 8
  %8 = icmp slt i32 %5, %7
  ret i1 %8
}

; Function Attrs: mustprogress nounwind uwtable
define linkonce_odr hidden void @_ZN12BaseIteratorC2EPK9FieldNode(ptr noundef nonnull align 8 dereferenceable(16) %0, ptr noundef %1) unnamed_addr #1 comdat align 2 {
  %3 = alloca ptr, align 8
  %4 = alloca ptr, align 8
  store ptr %0, ptr %3, align 8
  store ptr %1, ptr %4, align 8
  %5 = load ptr, ptr %3, align 8
  %6 = load ptr, ptr %4, align 8
  %7 = load ptr, ptr %4, align 8
  %8 = call noundef i32 @_ZNK9FieldNode10base_countEv(ptr noundef nonnull align 8 dereferenceable(102) %7)
  call void @_ZN16PointsToIteratorC2EPK12PointsToNodei(ptr noundef nonnull align 8 dereferenceable(16) %5, ptr noundef %6, i32 noundef %8)
  ret void
}

; Function Attrs: mustprogress nounwind uwtable
define hidden noundef zeroext i1 @_ZN15ConnectionGraph23has_non_reducible_mergeEP9FieldNodeR16Unique_Node_List(ptr noundef nonnull align 8 dereferenceable(232) %0, ptr noundef %1, ptr noundef nonnull align 8 dereferenceable(68) %2) #1 align 2 {
  %4 = alloca i1, align 1
  %5 = alloca ptr, align 8
  %6 = alloca ptr, align 8
  %7 = alloca ptr, align 8
  %8 = alloca %class.BaseIterator, align 8
  %9 = alloca ptr, align 8
  store ptr %0, ptr %5, align 8
  store ptr %1, ptr %6, align 8
  store ptr %2, ptr %7, align 8
  %10 = load ptr, ptr %6, align 8
  call void @_ZN12BaseIteratorC2EPK9FieldNode(ptr noundef nonnull align 8 dereferenceable(16) %8, ptr noundef %10)
  br label %11

11:                                               ; preds = %24, %3
  %12 = call noundef zeroext i1 @_ZNK16PointsToIterator8has_nextEv(ptr noundef nonnull align 8 dereferenceable(16) %8)
  br i1 %12, label %13, label %25

13:                                               ; preds = %11
  %14 = call noundef ptr @_ZNK12BaseIterator3getEv(ptr noundef nonnull align 8 dereferenceable(16) %8)
  %15 = call noundef ptr @_ZNK12PointsToNode10ideal_nodeEv(ptr noundef nonnull align 8 dereferenceable(72) %14)
  store ptr %15, ptr %9, align 8
  %16 = load ptr, ptr %9, align 8
  %17 = call noundef zeroext i1 @_ZNK4Node6is_PhiEv(ptr noundef nonnull align 8 dereferenceable(52) %16)
  br i1 %17, label %18, label %23

18:                                               ; preds = %13
  %19 = load ptr, ptr %7, align 8
  %20 = load ptr, ptr %9, align 8
  %21 = call noundef zeroext i1 @_ZN16Unique_Node_List6memberEP4Node(ptr noundef nonnull align 8 dereferenceable(68) %19, ptr noundef %20)
  br i1 %21, label %23, label %22

22:                                               ; preds = %18
  store i1 true, ptr %4, align 1
  br label %26

23:                                               ; preds = %18, %13
  br label %24

24:                                               ; preds = %23
  call void @_ZN16PointsToIterator4nextEv(ptr noundef nonnull align 8 dereferenceable(16) %8)
  br label %11, !llvm.loop !117

25:                                               ; preds = %11
  store i1 false, ptr %4, align 1
  br label %26

26:                                               ; preds = %25, %22
  %27 = load i1, ptr %4, align 1
  ret i1 %27
}