; Function Attrs: mustprogress nofree norecurse nosync nounwind willreturn memory(read, inaccessiblemem: none) uwtable
define hidden noundef zeroext i1 @_ZN15ConnectionGraph23has_non_reducible_mergeEP9FieldNodeR16Unique_Node_List(ptr nocapture nonnull readnone align 8 %0, ptr nocapture noundef readonly %1, ptr nocapture noundef nonnull readonly align 8 dereferenceable(68) %2) local_unnamed_addr #5 align 2 {
  %4 = getelementptr inbounds i8, ptr %1, i64 72
  %5 = load i32, ptr %4, align 4
  %6 = icmp sgt i32 %5, 0
  br i1 %6, label %.lr.ph, label %_ZN16Unique_Node_List6memberEP4Node.exit.thread

.lr.ph:                                           ; preds = %3
  %7 = getelementptr inbounds i8, ptr %2, i64 32
  %8 = getelementptr inbounds i8, ptr %1, i64 80
  %9 = load ptr, ptr %8, align 8
  %10 = load i32, ptr %7, align 8
  %11 = getelementptr inbounds i8, ptr %2, i64 40
  %12 = load ptr, ptr %11, align 8
  %13 = zext nneg i32 %5 to i64
  %wide.trip.count = zext nneg i32 %5 to i64
  br label %14

14:                                               ; preds = %.lr.ph, %34
  %indvars.iv = phi i64 [ 0, %.lr.ph ], [ %indvars.iv.next, %34 ]
  %15 = phi i1 [ true, %.lr.ph ], [ %35, %34 ]
  %16 = getelementptr inbounds ptr, ptr %9, i64 %indvars.iv
  %17 = load ptr, ptr %16, align 8
  %18 = getelementptr inbounds i8, ptr %17, i64 56
  %19 = load ptr, ptr %18, align 8
  %20 = getelementptr inbounds i8, ptr %19, i64 44
  %21 = load i32, ptr %20, align 4
  %22 = and i32 %21, 15
  %23 = icmp eq i32 %22, 12
  br i1 %23, label %24, label %34

24:                                               ; preds = %14
  %25 = getelementptr inbounds i8, ptr %19, i64 40
  %26 = load i32, ptr %25, align 8
  %27 = lshr i32 %26, 5
  %.not.i.i = icmp ult i32 %27, %10
  br i1 %.not.i.i, label %_ZN16Unique_Node_List6memberEP4Node.exit, label %_ZN16Unique_Node_List6memberEP4Node.exit.thread

_ZN16Unique_Node_List6memberEP4Node.exit:         ; preds = %24
  %28 = and i32 %26, 31
  %29 = shl nuw i32 1, %28
  %30 = zext nneg i32 %27 to i64
  %31 = getelementptr inbounds i32, ptr %12, i64 %30
  %32 = load i32, ptr %31, align 4
  %33 = and i32 %32, %29
  %.not = icmp eq i32 %33, 0
  br i1 %.not, label %_ZN16Unique_Node_List6memberEP4Node.exit.thread, label %34

34:                                               ; preds = %14, %_ZN16Unique_Node_List6memberEP4Node.exit
  %indvars.iv.next = add nuw nsw i64 %indvars.iv, 1
  %35 = icmp ult i64 %indvars.iv.next, %13
  %exitcond.not = icmp eq i64 %indvars.iv.next, %wide.trip.count
  br i1 %exitcond.not, label %_ZN16Unique_Node_List6memberEP4Node.exit.thread, label %14, !llvm.loop !134

_ZN16Unique_Node_List6memberEP4Node.exit.thread:  ; preds = %_ZN16Unique_Node_List6memberEP4Node.exit, %34, %24, %3
  %.lcssa = phi i1 [ false, %3 ], [ %15, %24 ], [ %35, %34 ], [ %15, %_ZN16Unique_Node_List6memberEP4Node.exit ]
  ret i1 %.lcssa
}